target datalayout = "e-m:e-p270:32:32-p271:32:32-p272:64:64-i64:64-i128:128-f80:128-n8:16:32:64-S128"
target triple = "x86_64-pc-linux-gnu"

%"class.Ipopt::ReferencedObject.base" = type <{ ptr, i32 }>
%"class.Ipopt::GenTMatrixSpace" = type { %"class.Ipopt::MatrixSpace.base", i32, ptr, ptr }
%"class.Ipopt::MatrixSpace.base" = type { %"class.Ipopt::ReferencedObject.base", i32, i32 }

; Function Attrs: mustprogress nounwind uwtable
define linkonce_odr noundef i32 @_ZNK5Ipopt15GenTMatrixSpace8NonzerosEv(ptr noundef nonnull align 8 dereferenceable(40) %0) #1 comdat align 2 {
  %2 = alloca ptr, align 8
  store ptr %0, ptr %2, align 8
  %3 = load ptr, ptr %2, align 8
  %4 = getelementptr inbounds %"class.Ipopt::GenTMatrixSpace", ptr %3, i32 0, i32 1
  %5 = load i32, ptr %4, align 4
  ret i32 %5
}

; Function Attrs: mustprogress uwtable
define noundef ptr @_ZNK5Ipopt15GenTMatrixSpace23AllocateInternalStorageEv(ptr noundef nonnull align 8 dereferenceable(40) %0) #0 align 2 {
  %2 = alloca ptr, align 8
  store ptr %0, ptr %2, align 8
  %3 = load ptr, ptr %2, align 8
  %4 = call noundef i32 @_ZNK5Ipopt15GenTMatrixSpace8NonzerosEv(ptr noundef nonnull align 8 dereferenceable(40) %3)
  %5 = sext i32 %4 to i64
  %6 = call { i64, i1 } @llvm.umul.with.overflow.i64(i64 %5, i64 8)
  %7 = extractvalue { i64, i1 } %6, 1
  %8 = extractvalue { i64, i1 } %6, 0
  %9 = select i1 %7, i64 -1, i64 %8
  %10 = call noalias noundef nonnull ptr @_Znam(i64 noundef %9) #12
  ret ptr %10
}